; Function Attrs: mustprogress null_pointer_is_valid sspstrong uwtable
define void @_ZN15RtpPlayerDialog6lockUIEv(ptr noundef align 8 dereferenceable_or_null(472) %0) local_unnamed_addr #0 align 2 {
  %2 = getelementptr inbounds nuw i8, ptr %0, i64 436
  %3 = load i32, ptr %2, align 4
  %4 = add i32 %3, 1
  store i32 %4, ptr %2, align 4
  %5 = icmp eq i32 %3, 0
  br i1 %5, label %6, label %12

6:                                                ; preds = %1
  %7 = getelementptr inbounds nuw i8, ptr %0, i64 312
  %8 = load i64, ptr %7, align 8
  %9 = icmp sgt i64 %8, 0
  br i1 %9, label %10, label %11

10:                                               ; preds = %6
  tail call void @_ZN15RtpPlayerDialog21on_stopButton_clickedEv(ptr noundef align 8 dereferenceable_or_null(472) %0)
  br label %11

11:                                               ; preds = %10, %6
  tail call void @_ZN7QWidget10setEnabledEb(ptr noundef align 8 dereferenceable_or_null(40) %0, i1 noundef zeroext false)
  br label %12

12:                                               ; preds = %11, %1
  ret void
}